; Function Attrs: nounwind uwtable
define i32 @Gia_ManSeqMarkUsed_rec(ptr noundef readonly captures(none) %0, ptr noundef captures(none) %1, ptr noundef captures(none) %2) local_unnamed_addr #1 {
  %4 = load i64, ptr %1, align 4
  %5 = and i64 %4, 1073741824
  %.not3336 = icmp eq i64 %5, 0
  br i1 %.not3336, label %.loopexit, label %.lr.ph.lr.ph

.lr.ph.lr.ph:                                     ; preds = %3
  %6 = getelementptr i8, ptr %0, i64 16
  %7 = getelementptr i8, ptr %0, i64 64
  br label %.lr.ph

.lr.ph:                                           ; preds = %.lr.ph.lr.ph, %Gia_ObjIsRo.exit.thread
  %8 = phi i64 [ %4, %.lr.ph.lr.ph ], [ %76, %Gia_ObjIsRo.exit.thread ]
  %.tr26.ph38 = phi ptr [ %1, %.lr.ph.lr.ph ], [ %73, %Gia_ObjIsRo.exit.thread ]
  %accumulator.tr.ph37 = phi i32 [ 0, %.lr.ph.lr.ph ], [ %75, %Gia_ObjIsRo.exit.thread ]
  br label %9

9:                                                ; preds = %.lr.ph, %tailrecurse
  %10 = phi i64 [ %8, %.lr.ph ], [ %17, %tailrecurse ]
  %.tr2634 = phi ptr [ %.tr26.ph38, %.lr.ph ], [ %16, %tailrecurse ]
  %11 = and i64 %10, -1073741825
  store i64 %11, ptr %.tr2634, align 4
  %12 = and i64 %10, 2147483648
  %.not.i = icmp eq i64 %12, 0
  %13 = and i64 %10, 536870911
  %14 = icmp eq i64 %13, 536870911
  %narrow.i.not = or i1 %.not.i, %14
  br i1 %narrow.i.not, label %19, label %tailrecurse

tailrecurse:                                      ; preds = %9
  %15 = sub nsw i64 0, %13
  %16 = getelementptr inbounds %struct.Gia_Obj_t_, ptr %.tr2634, i64 %15
  %17 = load i64, ptr %16, align 4
  %18 = and i64 %17, 1073741824
  %.not = icmp eq i64 %18, 0
  br i1 %.not, label %.loopexit, label %9

19:                                               ; preds = %9
  %20 = and i64 %10, 2684354559
  %narrow.i.not.i = icmp eq i64 %20, 2684354559
  br i1 %narrow.i.not.i, label %Gia_ObjIsRo.exit, label %Gia_ObjIsRo.exit.thread

Gia_ObjIsRo.exit:                                 ; preds = %19
  %21 = lshr i64 %10, 32
  %22 = trunc nuw i64 %21 to i32
  %23 = and i32 %22, 536870911
  %.val4.i = load i32, ptr %6, align 8, !tbaa !42
  %.val5.i = load ptr, ptr %7, align 8, !tbaa !43
  %24 = getelementptr i8, ptr %.val5.i, i64 4
  %.val5.val.i = load i32, ptr %24, align 4, !tbaa !38
  %25 = sub nsw i32 %.val5.val.i, %.val4.i
  %.not25 = icmp slt i32 %23, %25
  br i1 %.not25, label %Gia_ObjIsRo.exit.thread, label %26

26:                                               ; preds = %Gia_ObjIsRo.exit
  %27 = getelementptr i8, ptr %0, i64 72
  %.val6.i = load ptr, ptr %27, align 8, !tbaa !37
  %28 = getelementptr i8, ptr %.val6.i, i64 4
  %.val6.val.i = load i32, ptr %28, align 4, !tbaa !38
  %29 = add i32 %.val6.val.i, %23
  %30 = sub i32 %29, %.val5.val.i
  %31 = getelementptr i8, ptr %.val6.i, i64 8
  %.val4.val.i = load ptr, ptr %31, align 8, !tbaa !39
  %32 = sext i32 %30 to i64
  %33 = getelementptr inbounds i32, ptr %.val4.val.i, i64 %32
  %34 = load i32, ptr %33, align 4, !tbaa !29
  %35 = getelementptr inbounds nuw i8, ptr %2, i64 4
  %36 = load i32, ptr %35, align 4, !tbaa !38
  %37 = load i32, ptr %2, align 8, !tbaa !44
  %38 = icmp eq i32 %36, %37
  br i1 %38, label %39, label %.Vec_IntGrow.exit10_crit_edge.i

.Vec_IntGrow.exit10_crit_edge.i:                  ; preds = %26
  %.phi.trans.insert.i = getelementptr inbounds nuw i8, ptr %2, i64 8
  %.pre.i = load ptr, ptr %.phi.trans.insert.i, align 8, !tbaa !39
  br label %Vec_IntPush.exit

39:                                               ; preds = %26
  %40 = icmp slt i32 %36, 16
  br i1 %40, label %41, label %49

41:                                               ; preds = %39
  %42 = getelementptr inbounds nuw i8, ptr %2, i64 8
  %43 = load ptr, ptr %42, align 8, !tbaa !39
  %.not9.i.i = icmp eq ptr %43, null
  br i1 %.not9.i.i, label %46, label %44

44:                                               ; preds = %41
  %45 = tail call dereferenceable_or_null(64) ptr @realloc(ptr noundef nonnull %43, i64 noundef 64) #9
  br label %Vec_IntGrow.exit.i

46:                                               ; preds = %41
  %47 = tail call noalias dereferenceable_or_null(64) ptr @malloc(i64 noundef 64) #10
  br label %Vec_IntGrow.exit.i

Vec_IntGrow.exit.i:                               ; preds = %46, %44
  %48 = phi ptr [ %45, %44 ], [ %47, %46 ]
  store ptr %48, ptr %42, align 8, !tbaa !39
  store i32 16, ptr %2, align 8, !tbaa !44
  br label %Vec_IntPush.exit

49:                                               ; preds = %39
  %50 = shl nuw nsw i32 %36, 1
  %51 = getelementptr inbounds nuw i8, ptr %2, i64 8
  %52 = load ptr, ptr %51, align 8, !tbaa !39
  %.not9.i9.i = icmp eq ptr %52, null
  %53 = zext nneg i32 %50 to i64
  %54 = shl nuw nsw i64 %53, 2
  br i1 %.not9.i9.i, label %57, label %55

55:                                               ; preds = %49
  %56 = tail call ptr @realloc(ptr noundef nonnull %52, i64 noundef %54) #9
  br label %59

57:                                               ; preds = %49
  %58 = tail call noalias ptr @malloc(i64 noundef %54) #10
  br label %59

59:                                               ; preds = %57, %55
  %60 = phi ptr [ %56, %55 ], [ %58, %57 ]
  store ptr %60, ptr %51, align 8, !tbaa !39
  store i32 %50, ptr %2, align 8, !tbaa !44
  br label %Vec_IntPush.exit

Vec_IntPush.exit:                                 ; preds = %.Vec_IntGrow.exit10_crit_edge.i, %Vec_IntGrow.exit.i, %59
  %61 = phi ptr [ %.pre.i, %.Vec_IntGrow.exit10_crit_edge.i ], [ %60, %59 ], [ %48, %Vec_IntGrow.exit.i ]
  %62 = load i32, ptr %35, align 4, !tbaa !38
  %63 = add nsw i32 %62, 1
  store i32 %63, ptr %35, align 4, !tbaa !38
  %64 = sext i32 %62 to i64
  %65 = getelementptr inbounds i32, ptr %61, i64 %64
  store i32 %34, ptr %65, align 4, !tbaa !29
  br label %.loopexit

Gia_ObjIsRo.exit.thread:                          ; preds = %19, %Gia_ObjIsRo.exit
  %66 = sub nsw i64 0, %13
  %67 = getelementptr inbounds %struct.Gia_Obj_t_, ptr %.tr2634, i64 %66
  %68 = tail call i32 @Gia_ManSeqMarkUsed_rec(ptr noundef %0, ptr noundef nonnull %67, ptr noundef %2)
  %69 = load i64, ptr %.tr2634, align 4
  %70 = lshr i64 %69, 32
  %71 = and i64 %70, 536870911
  %72 = sub nsw i64 0, %71
  %73 = getelementptr inbounds %struct.Gia_Obj_t_, ptr %.tr2634, i64 %72
  %74 = add i32 %accumulator.tr.ph37, 1
  %75 = add i32 %74, %68
  %76 = load i64, ptr %73, align 4
  %77 = and i64 %76, 1073741824
  %.not33 = icmp eq i64 %77, 0
  br i1 %.not33, label %.loopexit, label %.lr.ph

.loopexit:                                        ; preds = %Gia_ObjIsRo.exit.thread, %tailrecurse, %3, %Vec_IntPush.exit
  %accumulator.tr.ph32 = phi i32 [ %accumulator.tr.ph37, %Vec_IntPush.exit ], [ 0, %3 ], [ %accumulator.tr.ph37, %tailrecurse ], [ %75, %Gia_ObjIsRo.exit.thread ]
  ret i32 %accumulator.tr.ph32
}